target datalayout = "e-m:e-p270:32:32-p271:32:32-p272:64:64-i64:64-i128:128-f80:128-n8:16:32:64-S128"
target triple = "x86_64-pc-linux-gnu"

%struct.mspack_system = type { ptr, ptr, ptr, ptr, ptr, ptr, ptr, ptr, ptr, ptr, ptr }
%struct.kwajd_stream = type { ptr, ptr, ptr, ptr, ptr, i32, i32, i32, [16 x i8], [16 x i8], [32 x i8], [64 x i8], [256 x i8], [544 x i16], [544 x i16], [576 x i16], [640 x i16], [1024 x i16], [2048 x i8], [4096 x i8] }

; Function Attrs: nounwind uwtable
define internal i32 @lzh_read_input(ptr noundef %0) #0 {
  %2 = alloca i32, align 4
  %3 = alloca ptr, align 8
  %4 = alloca i32, align 4
  store ptr %0, ptr %3, align 8
  %5 = load ptr, ptr %3, align 8
  %6 = getelementptr inbounds %struct.kwajd_stream, ptr %5, i32 0, i32 7
  %7 = load i32, ptr %6, align 8
  %8 = icmp ne i32 %7, 0
  br i1 %8, label %9, label %17

9:                                                ; preds = %1
  %10 = load ptr, ptr %3, align 8
  %11 = getelementptr inbounds %struct.kwajd_stream, ptr %10, i32 0, i32 7
  %12 = load i32, ptr %11, align 8
  %13 = add nsw i32 %12, 8
  store i32 %13, ptr %11, align 8
  %14 = load ptr, ptr %3, align 8
  %15 = getelementptr inbounds %struct.kwajd_stream, ptr %14, i32 0, i32 18
  %16 = getelementptr inbounds [2048 x i8], ptr %15, i64 0, i64 0
  store i8 0, ptr %16, align 4
  store i32 1, ptr %4, align 4
  br label %43

17:                                               ; preds = %1
  %18 = load ptr, ptr %3, align 8
  %19 = getelementptr inbounds %struct.kwajd_stream, ptr %18, i32 0, i32 0
  %20 = load ptr, ptr %19, align 8
  %21 = getelementptr inbounds %struct.mspack_system, ptr %20, i32 0, i32 2
  %22 = load ptr, ptr %21, align 8
  %23 = load ptr, ptr %3, align 8
  %24 = getelementptr inbounds %struct.kwajd_stream, ptr %23, i32 0, i32 1
  %25 = load ptr, ptr %24, align 8
  %26 = load ptr, ptr %3, align 8
  %27 = getelementptr inbounds %struct.kwajd_stream, ptr %26, i32 0, i32 18
  %28 = getelementptr inbounds [2048 x i8], ptr %27, i64 0, i64 0
  %29 = call i32 %22(ptr noundef %25, ptr noundef %28, i32 noundef 2048)
  store i32 %29, ptr %4, align 4
  %30 = load i32, ptr %4, align 4
  %31 = icmp slt i32 %30, 0
  br i1 %31, label %32, label %33

32:                                               ; preds = %17
  store i32 3, ptr %2, align 4
  br label %56

33:                                               ; preds = %17
  %34 = load i32, ptr %4, align 4
  %35 = icmp eq i32 %34, 0
  br i1 %35, label %36, label %42

36:                                               ; preds = %33
  %37 = load ptr, ptr %3, align 8
  %38 = getelementptr inbounds %struct.kwajd_stream, ptr %37, i32 0, i32 7
  store i32 8, ptr %38, align 8
  %39 = load ptr, ptr %3, align 8
  %40 = getelementptr inbounds %struct.kwajd_stream, ptr %39, i32 0, i32 18
  %41 = getelementptr inbounds [2048 x i8], ptr %40, i64 0, i64 0
  store i8 0, ptr %41, align 4
  store i32 1, ptr %4, align 4
  br label %42

42:                                               ; preds = %36, %33
  br label %43

43:                                               ; preds = %42, %9
  %44 = load ptr, ptr %3, align 8
  %45 = getelementptr inbounds %struct.kwajd_stream, ptr %44, i32 0, i32 18
  %46 = getelementptr inbounds [2048 x i8], ptr %45, i64 0, i64 0
  %47 = load ptr, ptr %3, align 8
  %48 = getelementptr inbounds %struct.kwajd_stream, ptr %47, i32 0, i32 3
  store ptr %46, ptr %48, align 8
  %49 = load ptr, ptr %3, align 8
  %50 = getelementptr inbounds %struct.kwajd_stream, ptr %49, i32 0, i32 18
  %51 = load i32, ptr %4, align 4
  %52 = sext i32 %51 to i64
  %53 = getelementptr inbounds [2048 x i8], ptr %50, i64 0, i64 %52
  %54 = load ptr, ptr %3, align 8
  %55 = getelementptr inbounds %struct.kwajd_stream, ptr %54, i32 0, i32 4
  store ptr %53, ptr %55, align 8
  store i32 0, ptr %2, align 4
  br label %56

56:                                               ; preds = %43, %32
  %57 = load i32, ptr %2, align 4
  ret i32 %57
}