; Function Attrs: nounwind uwtable
define internal fastcc range(i32 0, 4) i32 @lzh_read_input(ptr noundef nonnull %0) unnamed_addr #0 {
  %2 = getelementptr inbounds nuw i8, ptr %0, i64 48
  %3 = load i32, ptr %2, align 8
  %.not = icmp eq i32 %3, 0
  br i1 %.not, label %7, label %4

4:                                                ; preds = %1
  %5 = add nsw i32 %3, 8
  store i32 %5, ptr %2, align 8
  %6 = getelementptr inbounds nuw i8, ptr %0, i64 7092
  store i8 0, ptr %6, align 4
  br label %19

7:                                                ; preds = %1
  %8 = load ptr, ptr %0, align 8
  %9 = getelementptr inbounds nuw i8, ptr %8, i64 16
  %10 = load ptr, ptr %9, align 8
  %11 = getelementptr inbounds nuw i8, ptr %0, i64 8
  %12 = load ptr, ptr %11, align 8
  %13 = getelementptr inbounds nuw i8, ptr %0, i64 7092
  %14 = tail call i32 %10(ptr noundef %12, ptr noundef nonnull %13, i32 noundef 2048) #6
  %15 = icmp slt i32 %14, 0
  br i1 %15, label %25, label %16

16:                                               ; preds = %7
  %17 = icmp eq i32 %14, 0
  br i1 %17, label %18, label %19

18:                                               ; preds = %16
  store i32 8, ptr %2, align 8
  store i8 0, ptr %13, align 4
  br label %19

19:                                               ; preds = %16, %18, %4
  %.0 = phi i32 [ 1, %4 ], [ 1, %18 ], [ %14, %16 ]
  %20 = getelementptr inbounds nuw i8, ptr %0, i64 7092
  %21 = getelementptr inbounds nuw i8, ptr %0, i64 24
  store ptr %20, ptr %21, align 8
  %22 = zext nneg i32 %.0 to i64
  %23 = getelementptr inbounds nuw [2048 x i8], ptr %20, i64 0, i64 %22
  %24 = getelementptr inbounds nuw i8, ptr %0, i64 32
  store ptr %23, ptr %24, align 8
  br label %25

25:                                               ; preds = %7, %19
  %.015 = phi i32 [ 0, %19 ], [ 3, %7 ]
  ret i32 %.015
}